target datalayout = "e-m:e-p270:32:32-p271:32:32-p272:64:64-i64:64-i128:128-f80:128-n8:16:32:64-S128"
target triple = "x86_64-unknown-linux-gnu"

%struct.OptsVisitor = type { %struct.Visitor, ptr, i32, ptr, i32, ptr, %union.anon, %union.anon, ptr }
%struct.Visitor = type { ptr, ptr, ptr, ptr, ptr, ptr, ptr, ptr, ptr, ptr, ptr, ptr, ptr, ptr, ptr, ptr, ptr, ptr, ptr, ptr, i32, %struct.CompatPolicy, ptr, ptr }
%struct.CompatPolicy = type { i8, i32, i8, i32, i8, i32, i8, i32 }
%union.anon = type { i64 }
%struct.QTailQLink = type { ptr, ptr }
%struct.QemuOpt = type { ptr, ptr, ptr, %union.anon.2, ptr, %union.anon.3 }
%union.anon.2 = type { i64 }
%union.anon.3 = type { %struct.QTailQLink }

@.str.1 = private unnamed_addr constant [28 x i8] c"../qemu/qapi/opts-visitor.c\00", align 1
@.str.10 = private unnamed_addr constant [60 x i8] c"ov->list_mode == LM_NONE || ov->list_mode == LM_IN_PROGRESS\00", align 1
@.str.11 = private unnamed_addr constant [26 x i8] c"Parameter '%s' expects %s\00", align 1
@.str.15 = private unnamed_addr constant [32 x i8] c"ov->list_mode == LM_IN_PROGRESS\00", align 1
@__PRETTY_FUNCTION__.processed = private unnamed_addr constant [44 x i8] c"void processed(OptsVisitor *, const char *)\00", align 1
@__PRETTY_FUNCTION__.opts_type_uint64 = private unnamed_addr constant [70 x i8] c"_Bool opts_type_uint64(Visitor *, const char *, uint64_t *, Error **)\00", align 1
@__func__.opts_type_uint64 = private unnamed_addr constant [17 x i8] c"opts_type_uint64\00", align 1
@.str.16 = private unnamed_addr constant [15 x i8] c"a uint64 value\00", align 1
@.str.17 = private unnamed_addr constant [24 x i8] c"a uint64 value or range\00", align 1

; Function Attrs: nounwind sspstrong uwtable
define internal void @processed(ptr noundef %ov, ptr noundef %name) #0 {
entry:
  %ov.addr = alloca ptr, align 8
  %name.addr = alloca ptr, align 8
  store ptr %ov, ptr %ov.addr, align 8
  store ptr %name, ptr %name.addr, align 8
  %0 = load ptr, ptr %ov.addr, align 8
  %list_mode = getelementptr inbounds %struct.OptsVisitor, ptr %0, i32 0, i32 4
  %1 = load i32, ptr %list_mode, align 8
  %cmp = icmp eq i32 %1, 0
  br i1 %cmp, label %if.then, label %if.end

if.then:                                          ; preds = %entry
  %2 = load ptr, ptr %ov.addr, align 8
  %unprocessed_opts = getelementptr inbounds %struct.OptsVisitor, ptr %2, i32 0, i32 3
  %3 = load ptr, ptr %unprocessed_opts, align 8
  %4 = load ptr, ptr %name.addr, align 8
  %call = call i32 @g_hash_table_remove(ptr noundef %3, ptr noundef %4)
  br label %if.end4

if.end:                                           ; preds = %entry
  %5 = load ptr, ptr %ov.addr, align 8
  %list_mode1 = getelementptr inbounds %struct.OptsVisitor, ptr %5, i32 0, i32 4
  %6 = load i32, ptr %list_mode1, align 8
  %cmp2 = icmp eq i32 %6, 1
  br i1 %cmp2, label %if.then3, label %if.else

if.then3:                                         ; preds = %if.end
  br label %if.end4

if.else:                                          ; preds = %if.end
  call void @__assert_fail(ptr noundef @.str.15, ptr noundef @.str.1, i32 noundef 344, ptr noundef @__PRETTY_FUNCTION__.processed) #7
  unreachable

if.end4:                                          ; preds = %if.then3, %if.then
  ret void
}

; Function Attrs: nounwind sspstrong uwtable
define internal ptr @to_ov(ptr noundef %v) #0 {
entry:
  %v.addr = alloca ptr, align 8
  %__mptr = alloca ptr, align 8
  %tmp = alloca ptr, align 8
  store ptr %v, ptr %v.addr, align 8
  %0 = load ptr, ptr %v.addr, align 8
  store ptr %0, ptr %__mptr, align 8
  %1 = load ptr, ptr %__mptr, align 8
  %add.ptr = getelementptr i8, ptr %1, i64 0
  store ptr %add.ptr, ptr %tmp, align 8
  %2 = load ptr, ptr %tmp, align 8
  ret ptr %2
}

; Function Attrs: nounwind sspstrong uwtable
define internal zeroext i1 @opts_type_uint64(ptr noundef %v, ptr noundef %name, ptr noundef %obj, ptr noundef %errp) #0 {
entry:
  %retval = alloca i1, align 1
  %v.addr = alloca ptr, align 8
  %name.addr = alloca ptr, align 8
  %obj.addr = alloca ptr, align 8
  %errp.addr = alloca ptr, align 8
  %ov = alloca ptr, align 8
  %opt = alloca ptr, align 8
  %str = alloca ptr, align 8
  %val = alloca i64, align 8
  %endptr = alloca ptr, align 8
  %val2 = alloca i64, align 8
  store ptr %v, ptr %v.addr, align 8
  store ptr %name, ptr %name.addr, align 8
  store ptr %obj, ptr %obj.addr, align 8
  store ptr %errp, ptr %errp.addr, align 8
  %0 = load ptr, ptr %v.addr, align 8
  %call = call ptr @to_ov(ptr noundef %0)
  store ptr %call, ptr %ov, align 8
  %1 = load ptr, ptr %ov, align 8
  %list_mode = getelementptr inbounds %struct.OptsVisitor, ptr %1, i32 0, i32 4
  %2 = load i32, ptr %list_mode, align 8
  %cmp = icmp eq i32 %2, 3
  br i1 %cmp, label %if.then, label %if.end

if.then:                                          ; preds = %entry
  %3 = load ptr, ptr %ov, align 8
  %range_next = getelementptr inbounds %struct.OptsVisitor, ptr %3, i32 0, i32 6
  %4 = load i64, ptr %range_next, align 8
  %5 = load ptr, ptr %obj.addr, align 8
  store i64 %4, ptr %5, align 8
  store i1 true, ptr %retval, align 1
  br label %return

if.end:                                           ; preds = %entry
  %6 = load ptr, ptr %ov, align 8
  %7 = load ptr, ptr %name.addr, align 8
  %8 = load ptr, ptr %errp.addr, align 8
  %call1 = call ptr @lookup_scalar(ptr noundef %6, ptr noundef %7, ptr noundef %8)
  store ptr %call1, ptr %opt, align 8
  %9 = load ptr, ptr %opt, align 8
  %tobool = icmp ne ptr %9, null
  br i1 %tobool, label %if.end3, label %if.then2

if.then2:                                         ; preds = %if.end
  store i1 false, ptr %retval, align 1
  br label %return

if.end3:                                          ; preds = %if.end
  %10 = load ptr, ptr %opt, align 8
  %str4 = getelementptr inbounds %struct.QemuOpt, ptr %10, i32 0, i32 1
  %11 = load ptr, ptr %str4, align 8
  store ptr %11, ptr %str, align 8
  %12 = load ptr, ptr %ov, align 8
  %list_mode5 = getelementptr inbounds %struct.OptsVisitor, ptr %12, i32 0, i32 4
  %13 = load i32, ptr %list_mode5, align 8
  %cmp6 = icmp eq i32 %13, 0
  br i1 %cmp6, label %if.then9, label %lor.lhs.false

lor.lhs.false:                                    ; preds = %if.end3
  %14 = load ptr, ptr %ov, align 8
  %list_mode7 = getelementptr inbounds %struct.OptsVisitor, ptr %14, i32 0, i32 4
  %15 = load i32, ptr %list_mode7, align 8
  %cmp8 = icmp eq i32 %15, 1
  br i1 %cmp8, label %if.then9, label %if.else

if.then9:                                         ; preds = %lor.lhs.false, %if.end3
  br label %if.end10

if.else:                                          ; preds = %lor.lhs.false
  call void @__assert_fail(ptr noundef @.str.10, ptr noundef @.str.1, i32 noundef 472, ptr noundef @__PRETTY_FUNCTION__.opts_type_uint64) #7
  unreachable

if.end10:                                         ; preds = %if.then9
  %16 = load ptr, ptr %str, align 8
  %call11 = call i32 @parse_uint(ptr noundef %16, ptr noundef %endptr, i32 noundef 0, ptr noundef %val)
  %cmp12 = icmp eq i32 %call11, 0
  br i1 %cmp12, label %if.then13, label %if.end40

if.then13:                                        ; preds = %if.end10
  %17 = load ptr, ptr %endptr, align 8
  %18 = load i8, ptr %17, align 1
  %conv = sext i8 %18 to i32
  %cmp14 = icmp eq i32 %conv, 0
  br i1 %cmp14, label %if.then16, label %if.end17

if.then16:                                        ; preds = %if.then13
  %19 = load i64, ptr %val, align 8
  %20 = load ptr, ptr %obj.addr, align 8
  store i64 %19, ptr %20, align 8
  %21 = load ptr, ptr %ov, align 8
  %22 = load ptr, ptr %name.addr, align 8
  call void @processed(ptr noundef %21, ptr noundef %22)
  store i1 true, ptr %retval, align 1
  br label %return

if.end17:                                         ; preds = %if.then13
  %23 = load ptr, ptr %endptr, align 8
  %24 = load i8, ptr %23, align 1
  %conv18 = sext i8 %24 to i32
  %cmp19 = icmp eq i32 %conv18, 45
  br i1 %cmp19, label %land.lhs.true, label %if.end39

land.lhs.true:                                    ; preds = %if.end17
  %25 = load ptr, ptr %ov, align 8
  %list_mode21 = getelementptr inbounds %struct.OptsVisitor, ptr %25, i32 0, i32 4
  %26 = load i32, ptr %list_mode21, align 8
  %cmp22 = icmp eq i32 %26, 1
  br i1 %cmp22, label %if.then24, label %if.end39

if.then24:                                        ; preds = %land.lhs.true
  %27 = load ptr, ptr %endptr, align 8
  %add.ptr = getelementptr i8, ptr %27, i64 1
  store ptr %add.ptr, ptr %str, align 8
  %28 = load ptr, ptr %str, align 8
  %call25 = call i32 @parse_uint_full(ptr noundef %28, i32 noundef 0, ptr noundef %val2)
  %cmp26 = icmp eq i32 %call25, 0
  br i1 %cmp26, label %land.lhs.true28, label %if.end38

land.lhs.true28:                                  ; preds = %if.then24
  %29 = load i64, ptr %val, align 8
  %30 = load i64, ptr %val2, align 8
  %cmp29 = icmp ule i64 %29, %30
  br i1 %cmp29, label %land.lhs.true31, label %if.end38

land.lhs.true31:                                  ; preds = %land.lhs.true28
  %31 = load i64, ptr %val2, align 8
  %32 = load i64, ptr %val, align 8
  %sub = sub i64 %31, %32
  %cmp32 = icmp ult i64 %sub, 65536
  br i1 %cmp32, label %if.then34, label %if.end38

if.then34:                                        ; preds = %land.lhs.true31
  %33 = load i64, ptr %val, align 8
  %34 = load ptr, ptr %ov, align 8
  %range_next35 = getelementptr inbounds %struct.OptsVisitor, ptr %34, i32 0, i32 6
  store i64 %33, ptr %range_next35, align 8
  %35 = load i64, ptr %val2, align 8
  %36 = load ptr, ptr %ov, align 8
  %range_limit = getelementptr inbounds %struct.OptsVisitor, ptr %36, i32 0, i32 7
  store i64 %35, ptr %range_limit, align 8
  %37 = load ptr, ptr %ov, align 8
  %list_mode36 = getelementptr inbounds %struct.OptsVisitor, ptr %37, i32 0, i32 4
  store i32 3, ptr %list_mode36, align 8
  %38 = load ptr, ptr %ov, align 8
  %range_next37 = getelementptr inbounds %struct.OptsVisitor, ptr %38, i32 0, i32 6
  %39 = load i64, ptr %range_next37, align 8
  %40 = load ptr, ptr %obj.addr, align 8
  store i64 %39, ptr %40, align 8
  store i1 true, ptr %retval, align 1
  br label %return

if.end38:                                         ; preds = %land.lhs.true31, %land.lhs.true28, %if.then24
  br label %if.end39

if.end39:                                         ; preds = %if.end38, %land.lhs.true, %if.end17
  br label %if.end40

if.end40:                                         ; preds = %if.end39, %if.end10
  %41 = load ptr, ptr %errp.addr, align 8
  %42 = load ptr, ptr %opt, align 8
  %name41 = getelementptr inbounds %struct.QemuOpt, ptr %42, i32 0, i32 0
  %43 = load ptr, ptr %name41, align 8
  %44 = load ptr, ptr %ov, align 8
  %list_mode42 = getelementptr inbounds %struct.OptsVisitor, ptr %44, i32 0, i32 4
  %45 = load i32, ptr %list_mode42, align 8
  %cmp43 = icmp eq i32 %45, 0
  %cond = select i1 %cmp43, ptr @.str.16, ptr @.str.17
  call void (ptr, ptr, i32, ptr, ptr, ...) @error_setg_internal(ptr noundef %41, ptr noundef @.str.1, i32 noundef 499, ptr noundef @__func__.opts_type_uint64, ptr noundef @.str.11, ptr noundef %43, ptr noundef %cond)
  store i1 false, ptr %retval, align 1
  br label %return

return:                                           ; preds = %if.end40, %if.then34, %if.then16, %if.then2, %if.then
  %46 = load i1, ptr %retval, align 1
  ret i1 %46
}