; Function Attrs: nounwind sspstrong uwtable
define internal noundef zeroext i1 @opts_type_uint64(ptr noundef captures(none) %v, ptr noundef %name, ptr noundef writeonly captures(none) %obj, ptr noundef %errp) #0 {
entry:
  %val = alloca i64, align 8
  %endptr = alloca ptr, align 8
  %val2 = alloca i64, align 8
  %list_mode = getelementptr inbounds nuw i8, ptr %v, i64 240
  %0 = load i32, ptr %list_mode, align 8
  %cmp = icmp eq i32 %0, 3
  br i1 %cmp, label %if.then, label %if.end

if.then:                                          ; preds = %entry
  %range_next = getelementptr inbounds nuw i8, ptr %v, i64 256
  %1 = load i64, ptr %range_next, align 8
  store i64 %1, ptr %obj, align 8
  br label %return

if.end:                                           ; preds = %entry
  %call1 = tail call fastcc ptr @lookup_scalar(ptr noundef nonnull %v, ptr noundef %name, ptr noundef %errp)
  %tobool.not = icmp eq ptr %call1, null
  br i1 %tobool.not, label %return, label %if.end3

if.end3:                                          ; preds = %if.end
  %2 = load i32, ptr %list_mode, align 8
  %switch = icmp ult i32 %2, 2
  br i1 %switch, label %if.end10, label %if.else

if.else:                                          ; preds = %if.end3
  tail call void @__assert_fail(ptr noundef nonnull @.str.10, ptr noundef nonnull @.str.1, i32 noundef 472, ptr noundef nonnull @__PRETTY_FUNCTION__.opts_type_uint64) #8
  unreachable

if.end10:                                         ; preds = %if.end3
  %str4 = getelementptr inbounds nuw i8, ptr %call1, i64 8
  %3 = load ptr, ptr %str4, align 8
  %call11 = call i32 @parse_uint(ptr noundef %3, ptr noundef nonnull %endptr, i32 noundef 0, ptr noundef nonnull %val) #10
  %cmp12 = icmp eq i32 %call11, 0
  br i1 %cmp12, label %if.then13, label %if.end40

if.then13:                                        ; preds = %if.end10
  %4 = load ptr, ptr %endptr, align 8
  %5 = load i8, ptr %4, align 1
  switch i8 %5, label %if.end40 [
    i8 0, label %if.then16
    i8 45, label %land.lhs.true
  ]

if.then16:                                        ; preds = %if.then13
  %6 = load i64, ptr %val, align 8
  store i64 %6, ptr %obj, align 8
  %7 = load i32, ptr %list_mode, align 8
  switch i32 %7, label %if.else.i [
    i32 0, label %if.then.i
    i32 1, label %return
  ]

if.then.i:                                        ; preds = %if.then16
  %unprocessed_opts.i = getelementptr inbounds nuw i8, ptr %v, i64 232
  %8 = load ptr, ptr %unprocessed_opts.i, align 8
  %call.i = call i32 @g_hash_table_remove(ptr noundef %8, ptr noundef %name) #10
  br label %return

if.else.i:                                        ; preds = %if.then16
  call void @__assert_fail(ptr noundef nonnull @.str.15, ptr noundef nonnull @.str.1, i32 noundef 344, ptr noundef nonnull @__PRETTY_FUNCTION__.processed) #8
  unreachable

land.lhs.true:                                    ; preds = %if.then13
  %9 = load i32, ptr %list_mode, align 8
  %cmp22 = icmp eq i32 %9, 1
  br i1 %cmp22, label %if.then24, label %if.end40

if.then24:                                        ; preds = %land.lhs.true
  %add.ptr = getelementptr i8, ptr %4, i64 1
  %call25 = call i32 @parse_uint_full(ptr noundef %add.ptr, i32 noundef 0, ptr noundef nonnull %val2) #10
  %cmp26 = icmp eq i32 %call25, 0
  br i1 %cmp26, label %land.lhs.true28, label %if.end40

land.lhs.true28:                                  ; preds = %if.then24
  %10 = load i64, ptr %val, align 8
  %11 = load i64, ptr %val2, align 8
  %cmp29.not = icmp ule i64 %10, %11
  %sub = sub nuw i64 %11, %10
  %cmp32 = icmp ult i64 %sub, 65536
  %or.cond = select i1 %cmp29.not, i1 %cmp32, i1 false
  br i1 %or.cond, label %if.then34, label %if.end40

if.then34:                                        ; preds = %land.lhs.true28
  %range_next35 = getelementptr inbounds nuw i8, ptr %v, i64 256
  store i64 %10, ptr %range_next35, align 8
  %range_limit = getelementptr inbounds nuw i8, ptr %v, i64 264
  store i64 %11, ptr %range_limit, align 8
  store i32 3, ptr %list_mode, align 8
  store i64 %10, ptr %obj, align 8
  br label %return

if.end40:                                         ; preds = %if.then13, %land.lhs.true, %land.lhs.true28, %if.then24, %if.end10
  %12 = load ptr, ptr %call1, align 8
  %13 = load i32, ptr %list_mode, align 8
  %cmp43 = icmp eq i32 %13, 0
  %cond = select i1 %cmp43, ptr @.str.16, ptr @.str.17
  call void (ptr, ptr, i32, ptr, ptr, ...) @error_setg_internal(ptr noundef %errp, ptr noundef nonnull @.str.1, i32 noundef 499, ptr noundef nonnull @__func__.opts_type_uint64, ptr noundef nonnull @.str.11, ptr noundef %12, ptr noundef nonnull %cond) #10
  br label %return

return:                                           ; preds = %if.then.i, %if.then16, %if.end, %if.end40, %if.then34, %if.then
  %retval.0 = phi i1 [ true, %if.then ], [ true, %if.then34 ], [ false, %if.end40 ], [ false, %if.end ], [ true, %if.then16 ], [ true, %if.then.i ]
  ret i1 %retval.0
}